; Function Attrs: inlinehint mustprogress nofree norecurse nosync nounwind willreturn memory(read, argmem: readwrite, inaccessiblemem: none) uwtable
define internal fastcc i32 @get_ue_golomb_long(ptr noundef captures(none) %0) unnamed_addr #1 {
  %.sroa.0.0.copyload.i = load ptr, ptr %0, align 8, !tbaa !57
  %.sroa.46.0..sroa_idx.i = getelementptr inbounds nuw i8, ptr %0, i64 16
  %.sroa.46.0.copyload.i = load i32, ptr %.sroa.46.0..sroa_idx.i, align 8, !tbaa !58
  %.sroa.77.0..sroa_idx.i = getelementptr inbounds nuw i8, ptr %0, i64 24
  %.sroa.77.0.copyload.i = load i32, ptr %.sroa.77.0..sroa_idx.i, align 8, !tbaa !58
  %2 = lshr i32 %.sroa.46.0.copyload.i, 3
  %3 = zext nneg i32 %2 to i64
  %4 = getelementptr inbounds nuw i8, ptr %.sroa.0.0.copyload.i, i64 %3
  %5 = load i32, ptr %4, align 1, !tbaa !13
  %6 = tail call i32 @llvm.bswap.i32(i32 %5)
  %7 = and i32 %.sroa.46.0.copyload.i, 7
  %8 = shl i32 %6, %7
  %9 = and i32 %8, -65536
  %10 = add i32 %.sroa.46.0.copyload.i, 16
  %11 = tail call i32 @llvm.umin.i32(i32 %.sroa.77.0.copyload.i, i32 %10)
  %12 = lshr i32 %11, 3
  %13 = zext nneg i32 %12 to i64
  %14 = getelementptr inbounds nuw i8, ptr %.sroa.0.0.copyload.i, i64 %13
  %15 = load i32, ptr %14, align 1, !tbaa !13
  %16 = tail call i32 @llvm.bswap.i32(i32 %15)
  %17 = and i32 %11, 7
  %18 = shl i32 %16, %17
  %19 = lshr i32 %18, 16
  %20 = or disjoint i32 %19, %9
  %.not.i = icmp ult i32 %8, 65536
  %21 = lshr i32 %8, 16
  %spec.select.i = select i1 %.not.i, i32 %20, i32 %21
  %spec.select12.i = select i1 %.not.i, i32 0, i32 16
  %.not11.i = icmp samesign ult i32 %spec.select.i, 256
  %22 = lshr i32 %spec.select.i, 8
  %23 = or disjoint i32 %spec.select12.i, 8
  %.110.i = select i1 %.not11.i, i32 %spec.select.i, i32 %22
  %.1.i = select i1 %.not11.i, i32 %spec.select12.i, i32 %23
  %24 = zext nneg i32 %.110.i to i64
  %25 = getelementptr inbounds nuw [256 x i8], ptr @ff_log2_tab, i64 0, i64 %24
  %26 = load i8, ptr %25, align 1, !tbaa !13
  %27 = zext i8 %26 to i32
  %28 = add nuw nsw i32 %.1.i, %27
  %29 = sub nsw i32 31, %28
  %30 = sub nsw i32 0, %.sroa.46.0.copyload.i
  %31 = sub nsw i32 %.sroa.77.0.copyload.i, %.sroa.46.0.copyload.i
  %32 = icmp slt i32 %29, %30
  %..i.i = tail call i32 @llvm.smin.i32(i32 range(i32 -2147483616, -2147483648) %29, i32 %31)
  %.0.i.i = select i1 %32, i32 %30, i32 %..i.i
  %33 = add nsw i32 %.0.i.i, %.sroa.46.0.copyload.i
  store i32 %33, ptr %.sroa.46.0..sroa_idx.i, align 8, !tbaa !4
  %.not.i5 = icmp eq i32 %28, 32
  br i1 %.not.i5, label %get_bits_long.exit, label %34

34:                                               ; preds = %1
  %35 = icmp samesign ugt i32 %28, 6
  %36 = lshr i32 %33, 3
  %37 = zext nneg i32 %36 to i64
  %38 = getelementptr inbounds nuw i8, ptr %.sroa.0.0.copyload.i, i64 %37
  %39 = load i32, ptr %38, align 1, !tbaa !13
  %40 = tail call i32 @llvm.bswap.i32(i32 %39)
  %41 = and i32 %33, 7
  %42 = shl i32 %40, %41
  br i1 %35, label %43, label %47

43:                                               ; preds = %34
  %44 = lshr i32 %42, %28
  %reass.sub6 = sub i32 %33, %28
  %45 = add i32 %reass.sub6, 32
  %46 = tail call i32 @llvm.umin.i32(i32 %.sroa.77.0.copyload.i, i32 %45)
  store i32 %46, ptr %.sroa.46.0..sroa_idx.i, align 8, !tbaa !4
  br label %get_bits_long.exit

47:                                               ; preds = %34
  %48 = lshr i32 %42, 16
  %49 = add i32 %33, 16
  %50 = tail call i32 @llvm.umin.i32(i32 %.sroa.77.0.copyload.i, i32 %49)
  store i32 %50, ptr %.sroa.46.0..sroa_idx.i, align 8, !tbaa !4
  %51 = sub nuw nsw i32 16, %28
  %52 = shl nuw i32 %48, %51
  %53 = lshr i32 %50, 3
  %54 = zext nneg i32 %53 to i64
  %55 = getelementptr inbounds nuw i8, ptr %.sroa.0.0.copyload.i, i64 %54
  %56 = load i32, ptr %55, align 1, !tbaa !13
  %57 = tail call i32 @llvm.bswap.i32(i32 %56)
  %58 = and i32 %50, 7
  %59 = shl i32 %57, %58
  %60 = or disjoint i32 %27, 16
  %61 = lshr i32 %59, %60
  %62 = add i32 %50, %51
  %63 = tail call i32 @llvm.umin.i32(i32 %.sroa.77.0.copyload.i, i32 %62)
  store i32 %63, ptr %.sroa.46.0..sroa_idx.i, align 8, !tbaa !4
  %64 = or i32 %61, %52
  br label %get_bits_long.exit

get_bits_long.exit:                               ; preds = %1, %43, %47
  %.0.i = phi i32 [ %44, %43 ], [ %64, %47 ], [ 0, %1 ]
  %65 = add i32 %.0.i, -1
  ret i32 %65
}